target datalayout = "e-m:e-p270:32:32-p271:32:32-p272:64:64-i64:64-i128:128-f80:128-n8:16:32:64-S128"
target triple = "x86_64-pc-linux-gnu"

@.str.11 = private unnamed_addr constant [29 x i8] c"/sys/cray/pm_counters/energy\00", align 1
@.str.12 = private unnamed_addr constant [28 x i8] c"/sys/cray/pm_counters/power\00", align 1
@.str.13 = private unnamed_addr constant [16 x i8] c"unknown type %d\00", align 1
@.str.14 = private unnamed_addr constant [2 x i8] c"r\00", align 1
@.str.15 = private unnamed_addr constant [22 x i8] c"%s: unable to open %s\00", align 1
@__func__._get_latest_stats = private unnamed_addr constant [18 x i8] c"_get_latest_stats\00", align 1
@.str.16 = private unnamed_addr constant [18 x i8] c"%s: fcntl(%s): %m\00", align 1
@.str.17 = private unnamed_addr constant [4 x i8] c"%lu\00", align 1

; Function Attrs: nounwind uwtable
define internal i64 @_get_latest_stats(i32 noundef %0) #0 {
  %2 = alloca i64, align 8
  %3 = alloca i32, align 4
  %4 = alloca i64, align 8
  %5 = alloca i32, align 4
  %6 = alloca ptr, align 8
  %7 = alloca ptr, align 8
  %8 = alloca [72 x i8], align 16
  %9 = alloca i32, align 4
  %10 = alloca i32, align 4
  store i32 %0, ptr %3, align 4
  call void @llvm.lifetime.start.p0(i64 8, ptr %4) #5
  store i64 0, ptr %4, align 8
  call void @llvm.lifetime.start.p0(i64 4, ptr %5) #5
  call void @llvm.lifetime.start.p0(i64 8, ptr %6) #5
  store ptr null, ptr %6, align 8
  call void @llvm.lifetime.start.p0(i64 8, ptr %7) #5
  call void @llvm.lifetime.start.p0(i64 72, ptr %8) #5
  call void @llvm.lifetime.start.p0(i64 4, ptr %9) #5
  %11 = load i32, ptr %3, align 4
  switch i32 %11, label %14 [
    i32 0, label %12
    i32 1, label %13
  ]

12:                                               ; preds = %1
  store ptr @.str.11, ptr %7, align 8
  br label %17

13:                                               ; preds = %1
  store ptr @.str.12, ptr %7, align 8
  br label %17

14:                                               ; preds = %1
  %15 = load i32, ptr %3, align 4
  %16 = call i32 (ptr, ...) @slurm_error(ptr noundef @.str.13, i32 noundef %15)
  store i64 0, ptr %2, align 8
  store i32 1, ptr %10, align 4
  br label %51

17:                                               ; preds = %13, %12
  %18 = load ptr, ptr %7, align 8
  %19 = call noalias ptr @fopen(ptr noundef %18, ptr noundef @.str.14)
  store ptr %19, ptr %6, align 8
  %20 = icmp ne ptr %19, null
  br i1 %20, label %25, label %21

21:                                               ; preds = %17
  %22 = load ptr, ptr %7, align 8
  %23 = call i32 (ptr, ...) @slurm_error(ptr noundef @.str.15, ptr noundef @__func__._get_latest_stats, ptr noundef %22)
  %24 = load i64, ptr %4, align 8
  store i64 %24, ptr %2, align 8
  store i32 1, ptr %10, align 4
  br label %51

25:                                               ; preds = %17
  %26 = load ptr, ptr %6, align 8
  %27 = call i32 @fileno(ptr noundef %26) #5
  store i32 %27, ptr %5, align 4
  %28 = load i32, ptr %5, align 4
  %29 = call i32 (i32, i32, ...) @fcntl(i32 noundef %28, i32 noundef 2, i32 noundef 1)
  %30 = icmp eq i32 %29, -1
  br i1 %30, label %31, label %34

31:                                               ; preds = %25
  %32 = load ptr, ptr %7, align 8
  %33 = call i32 (ptr, ...) @slurm_error(ptr noundef @.str.16, ptr noundef @__func__._get_latest_stats, ptr noundef %32)
  br label %34

34:                                               ; preds = %31, %25
  %35 = load i32, ptr %5, align 4
  %36 = getelementptr inbounds [72 x i8], ptr %8, i64 0, i64 0
  %37 = call i64 @read(i32 noundef %35, ptr noundef %36, i64 noundef 71)
  %38 = trunc i64 %37 to i32
  store i32 %38, ptr %9, align 4
  %39 = load i32, ptr %9, align 4
  %40 = icmp sgt i32 %39, 0
  br i1 %40, label %41, label %47

41:                                               ; preds = %34
  %42 = load i32, ptr %9, align 4
  %43 = sext i32 %42 to i64
  %44 = getelementptr inbounds [72 x i8], ptr %8, i64 0, i64 %43
  store i8 0, ptr %44, align 1
  %45 = getelementptr inbounds [72 x i8], ptr %8, i64 0, i64 0
  %46 = call i32 (ptr, ptr, ...) @__isoc99_sscanf(ptr noundef %45, ptr noundef @.str.17, ptr noundef %4) #5
  br label %47

47:                                               ; preds = %41, %34
  %48 = load ptr, ptr %6, align 8
  %49 = call i32 @fclose(ptr noundef %48)
  %50 = load i64, ptr %4, align 8
  store i64 %50, ptr %2, align 8
  store i32 1, ptr %10, align 4
  br label %51

51:                                               ; preds = %47, %21, %14
  call void @llvm.lifetime.end.p0(i64 4, ptr %9) #5
  call void @llvm.lifetime.end.p0(i64 72, ptr %8) #5
  call void @llvm.lifetime.end.p0(i64 8, ptr %7) #5
  call void @llvm.lifetime.end.p0(i64 8, ptr %6) #5
  call void @llvm.lifetime.end.p0(i64 4, ptr %5) #5
  call void @llvm.lifetime.end.p0(i64 8, ptr %4) #5
  %52 = load i64, ptr %2, align 8
  ret i64 %52
}