; Function Attrs: nounwind uwtable
define internal fastcc i64 @_get_latest_stats(i32 noundef range(i32 0, 2) %0) unnamed_addr #0 {
  %2 = alloca i64, align 8
  %3 = alloca [72 x i8], align 16
  call void @llvm.lifetime.start.p0(i64 8, ptr nonnull %2) #8
  store i64 0, ptr %2, align 8
  call void @llvm.lifetime.start.p0(i64 72, ptr nonnull %3) #8
  %trunc = trunc nuw i32 %0 to i1
  %.str.11..str.12 = select i1 %trunc, ptr @.str.12, ptr @.str.11
  %4 = tail call noalias ptr @fopen(ptr noundef nonnull %.str.11..str.12, ptr noundef nonnull @.str.14)
  %.not = icmp eq ptr %4, null
  br i1 %.not, label %5, label %7

5:                                                ; preds = %1
  %6 = tail call i32 (ptr, ...) @slurm_error(ptr noundef nonnull @.str.15, ptr noundef nonnull @__func__._get_latest_stats, ptr noundef nonnull %.str.11..str.12) #8
  br label %23

7:                                                ; preds = %1
  %8 = tail call i32 @fileno(ptr noundef nonnull %4) #8
  %9 = tail call i32 (i32, i32, ...) @fcntl(i32 noundef %8, i32 noundef 2, i32 noundef 1) #8
  %10 = icmp eq i32 %9, -1
  br i1 %10, label %11, label %13

11:                                               ; preds = %7
  %12 = tail call i32 (ptr, ...) @slurm_error(ptr noundef nonnull @.str.16, ptr noundef nonnull @__func__._get_latest_stats, ptr noundef nonnull %.str.11..str.12) #8
  br label %13

13:                                               ; preds = %11, %7
  %14 = call i64 @read(i32 noundef %8, ptr noundef nonnull %3, i64 noundef 71) #8
  %15 = trunc i64 %14 to i32
  %16 = icmp sgt i32 %15, 0
  br i1 %16, label %17, label %21

17:                                               ; preds = %13
  %18 = and i64 %14, 2147483647
  %19 = getelementptr inbounds nuw [72 x i8], ptr %3, i64 0, i64 %18
  store i8 0, ptr %19, align 1
  %20 = call i32 (ptr, ptr, ...) @__isoc99_sscanf(ptr noundef nonnull %3, ptr noundef nonnull @.str.17, ptr noundef nonnull %2) #8
  br label %21

21:                                               ; preds = %17, %13
  %22 = call i32 @fclose(ptr noundef nonnull %4)
  %.0.pre = load i64, ptr %2, align 8
  br label %23

23:                                               ; preds = %21, %5
  %.0 = phi i64 [ %.0.pre, %21 ], [ 0, %5 ]
  call void @llvm.lifetime.end.p0(i64 72, ptr nonnull %3) #8
  call void @llvm.lifetime.end.p0(i64 8, ptr nonnull %2) #8
  ret i64 %.0
}